target datalayout = "e-m:e-p270:32:32-p271:32:32-p272:64:64-i64:64-i128:128-f80:128-n8:16:32:64-S128"
target triple = "x86_64-pc-linux-gnu"

%struct.tng_atom = type { ptr, i64, ptr, ptr }

@stderr = external global ptr, align 8
@.str = private unnamed_addr constant [45 x i8] c"TNG library: Cannot allocate memory. %s: %d\0A\00", align 1
@.str.1 = private unnamed_addr constant [130 x i8] c"generated/home/dtcxzyw/WorkSpace/Projects/compilers/llvm-opt-benchmark/bench/gromacs/gromacs/src/external/tng_io/src/lib/tng_io.c\00", align 1

; Function Attrs: inlinehint nounwind uwtable
define internal i64 @tng_min_size(i64 noundef %0, i64 noundef %1) #4 {
  %3 = alloca i64, align 8
  %4 = alloca i64, align 8
  store i64 %0, ptr %3, align 8, !tbaa !26
  store i64 %1, ptr %4, align 8, !tbaa !26
  %5 = load i64, ptr %3, align 8, !tbaa !26
  %6 = load i64, ptr %4, align 8, !tbaa !26
  %7 = icmp ult i64 %5, %6
  br i1 %7, label %8, label %10

8:                                                ; preds = %2
  %9 = load i64, ptr %3, align 8, !tbaa !26
  br label %12

10:                                               ; preds = %2
  %11 = load i64, ptr %4, align 8, !tbaa !26
  br label %12

12:                                               ; preds = %10, %8
  %13 = phi i64 [ %9, %8 ], [ %11, %10 ]
  ret i64 %13
}

; Function Attrs: nounwind uwtable
define i32 @tng_atom_name_set(ptr noundef %0, ptr noundef %1, ptr noundef %2) #0 {
  %4 = alloca i32, align 4
  %5 = alloca ptr, align 8
  %6 = alloca ptr, align 8
  %7 = alloca ptr, align 8
  %8 = alloca i32, align 4
  %9 = alloca i32, align 4
  store ptr %0, ptr %5, align 8, !tbaa !3
  store ptr %1, ptr %6, align 8, !tbaa !8
  store ptr %2, ptr %7, align 8, !tbaa !19
  call void @llvm.lifetime.start.p0(i64 4, ptr %8) #11
  %10 = load ptr, ptr %7, align 8, !tbaa !19
  %11 = call i64 @strlen(ptr noundef %10) #12
  %12 = add i64 %11, 1
  %13 = call i64 @tng_min_size(i64 noundef %12, i64 noundef 1024)
  %14 = trunc i64 %13 to i32
  store i32 %14, ptr %8, align 4, !tbaa !20
  %15 = load ptr, ptr %6, align 8, !tbaa !8
  %16 = getelementptr inbounds nuw %struct.tng_atom, ptr %15, i32 0, i32 3
  %17 = load ptr, ptr %16, align 8, !tbaa !22
  %18 = icmp ne ptr %17, null
  br i1 %18, label %19, label %33

19:                                               ; preds = %3
  %20 = load ptr, ptr %6, align 8, !tbaa !8
  %21 = getelementptr inbounds nuw %struct.tng_atom, ptr %20, i32 0, i32 3
  %22 = load ptr, ptr %21, align 8, !tbaa !22
  %23 = call i64 @strlen(ptr noundef %22) #12
  %24 = load i32, ptr %8, align 4, !tbaa !20
  %25 = zext i32 %24 to i64
  %26 = icmp ult i64 %23, %25
  br i1 %26, label %27, label %33

27:                                               ; preds = %19
  %28 = load ptr, ptr %6, align 8, !tbaa !8
  %29 = getelementptr inbounds nuw %struct.tng_atom, ptr %28, i32 0, i32 3
  %30 = load ptr, ptr %29, align 8, !tbaa !22
  call void @free(ptr noundef %30) #11
  %31 = load ptr, ptr %6, align 8, !tbaa !8
  %32 = getelementptr inbounds nuw %struct.tng_atom, ptr %31, i32 0, i32 3
  store ptr null, ptr %32, align 8, !tbaa !22
  br label %33

33:                                               ; preds = %27, %19, %3
  %34 = load ptr, ptr %6, align 8, !tbaa !8
  %35 = getelementptr inbounds nuw %struct.tng_atom, ptr %34, i32 0, i32 3
  %36 = load ptr, ptr %35, align 8, !tbaa !22
  %37 = icmp ne ptr %36, null
  br i1 %37, label %52, label %38

38:                                               ; preds = %33
  %39 = load i32, ptr %8, align 4, !tbaa !20
  %40 = zext i32 %39 to i64
  %41 = call noalias ptr @malloc(i64 noundef %40) #13
  %42 = load ptr, ptr %6, align 8, !tbaa !8
  %43 = getelementptr inbounds nuw %struct.tng_atom, ptr %42, i32 0, i32 3
  store ptr %41, ptr %43, align 8, !tbaa !22
  %44 = load ptr, ptr %6, align 8, !tbaa !8
  %45 = getelementptr inbounds nuw %struct.tng_atom, ptr %44, i32 0, i32 3
  %46 = load ptr, ptr %45, align 8, !tbaa !22
  %47 = icmp ne ptr %46, null
  br i1 %47, label %51, label %48

48:                                               ; preds = %38
  %49 = load ptr, ptr @stderr, align 8, !tbaa !24
  %50 = call i32 (ptr, ptr, ...) @fprintf(ptr noundef %49, ptr noundef @.str, ptr noundef @.str.1, i32 noundef 6310) #11
  store i32 2, ptr %4, align 4
  store i32 1, ptr %9, align 4
  br label %60

51:                                               ; preds = %38
  br label %52

52:                                               ; preds = %51, %33
  %53 = load ptr, ptr %6, align 8, !tbaa !8
  %54 = getelementptr inbounds nuw %struct.tng_atom, ptr %53, i32 0, i32 3
  %55 = load ptr, ptr %54, align 8, !tbaa !22
  %56 = load ptr, ptr %7, align 8, !tbaa !19
  %57 = load i32, ptr %8, align 4, !tbaa !20
  %58 = zext i32 %57 to i64
  %59 = call ptr @strncpy(ptr noundef %55, ptr noundef %56, i64 noundef %58) #11
  store i32 0, ptr %4, align 4
  store i32 1, ptr %9, align 4
  br label %60

60:                                               ; preds = %52, %48
  call void @llvm.lifetime.end.p0(i64 4, ptr %8) #11
  %61 = load i32, ptr %4, align 4
  ret i32 %61
}