; Function Attrs: nounwind uwtable
define range(i32 0, 3) i32 @tng_atom_name_set(ptr noundef readnone captures(none) %0, ptr noundef captures(none) %1, ptr noundef readonly captures(none) %2) local_unnamed_addr #4 {
  %4 = tail call i64 @strlen(ptr noundef nonnull dereferenceable(1) %2) #27
  %5 = add i64 %4, 1
  %6 = tail call noundef range(i64 0, 1025) i64 @llvm.umin.i64(i64 %5, i64 1024)
  %7 = getelementptr inbounds nuw i8, ptr %1, i64 24
  %8 = load ptr, ptr %7, align 8, !tbaa !12
  %.not = icmp eq ptr %8, null
  br i1 %.not, label %.thread, label %9

9:                                                ; preds = %3
  %10 = tail call i64 @strlen(ptr noundef nonnull dereferenceable(1) %8) #27
  %11 = icmp ult i64 %10, %6
  br i1 %11, label %12, label %17

12:                                               ; preds = %9
  tail call void @free(ptr noundef nonnull %8) #26
  br label %.thread

.thread:                                          ; preds = %3, %12
  %13 = tail call noalias ptr @malloc(i64 noundef %6) #28
  store ptr %13, ptr %7, align 8, !tbaa !12
  %.not15 = icmp eq ptr %13, null
  br i1 %.not15, label %14, label %17

14:                                               ; preds = %.thread
  %15 = load ptr, ptr @stderr, align 8, !tbaa !14
  %16 = tail call i32 (ptr, ptr, ...) @fprintf(ptr noundef %15, ptr noundef nonnull @.str, ptr noundef nonnull @.str.1, i32 noundef 6310) #29
  br label %20

17:                                               ; preds = %9, %.thread
  %18 = phi ptr [ %13, %.thread ], [ %8, %9 ]
  %19 = tail call ptr @strncpy(ptr noundef nonnull %18, ptr noundef nonnull %2, i64 noundef %6) #26
  br label %20

20:                                               ; preds = %17, %14
  %.0 = phi i32 [ 0, %17 ], [ 2, %14 ]
  ret i32 %.0
}